target datalayout = "e-m:e-p270:32:32-p271:32:32-p272:64:64-i64:64-i128:128-f80:128-n8:16:32:64-S128"
target triple = "x86_64-pc-linux-gnu"

%struct.pmix_shmem_t = type { %struct.pmix_object_t, i8, i64, ptr, ptr, [4097 x i8] }
%struct.pmix_object_t = type { %union.pthread_mutex_t, ptr, i32, %struct.pmix_tma }
%union.pthread_mutex_t = type { %struct.__pthread_mutex_s }
%struct.__pthread_mutex_s = type { i32, i32, i32, i32, i32, i16, i16, %struct.__pthread_internal_list }
%struct.__pthread_internal_list = type { ptr, ptr }
%struct.pmix_tma = type { ptr, ptr, ptr, ptr, ptr, ptr, ptr, ptr }
%struct.pmix_shmem_header_t = type { i32 }

; Function Attrs: inlinehint nounwind uwtable
define internal i32 @pmix_atomic_sub_fetch_32(ptr noundef %0, i32 noundef %1) #4 {
  %3 = alloca ptr, align 8
  %4 = alloca i32, align 4
  %5 = alloca i32, align 4
  %6 = alloca i32, align 4
  store ptr %0, ptr %3, align 8, !tbaa !29
  store i32 %1, ptr %4, align 4, !tbaa !12
  %7 = load ptr, ptr %3, align 8, !tbaa !29
  %8 = load i32, ptr %4, align 4, !tbaa !12
  store i32 %8, ptr %5, align 4, !tbaa !12
  %9 = load i32, ptr %5, align 4
  %10 = atomicrmw volatile sub ptr %7, i32 %9 monotonic, align 4
  %11 = sub i32 %10, %9
  store i32 %11, ptr %6, align 4
  %12 = load i32, ptr %6, align 4, !tbaa !12
  ret i32 %12
}

; Function Attrs: nounwind uwtable
define i32 @pmix_shmem_segment_detach(ptr noundef %0) #0 {
  %2 = alloca ptr, align 8
  %3 = alloca i32, align 4
  store ptr %0, ptr %2, align 8, !tbaa !3
  call void @llvm.lifetime.start.p0(i64 4, ptr %3) #7
  store i32 0, ptr %3, align 4, !tbaa !12
  %4 = load ptr, ptr %2, align 8, !tbaa !3
  %5 = icmp ne ptr %4, null
  br i1 %5, label %6, label %25

6:                                                ; preds = %1
  %7 = load ptr, ptr %2, align 8, !tbaa !3
  %8 = getelementptr inbounds nuw %struct.pmix_shmem_t, ptr %7, i32 0, i32 1
  %9 = load volatile i8, ptr %8, align 8, !tbaa !23, !range !27, !noundef !28
  %10 = trunc i8 %9 to i1
  br i1 %10, label %11, label %25

11:                                               ; preds = %6
  %12 = load ptr, ptr %2, align 8, !tbaa !3
  %13 = getelementptr inbounds nuw %struct.pmix_shmem_t, ptr %12, i32 0, i32 3
  %14 = load ptr, ptr %13, align 8, !tbaa !20
  %15 = load ptr, ptr %2, align 8, !tbaa !3
  %16 = getelementptr inbounds nuw %struct.pmix_shmem_t, ptr %15, i32 0, i32 2
  %17 = load i64, ptr %16, align 8, !tbaa !14
  %18 = call i32 @munmap(ptr noundef %14, i64 noundef %17) #7
  store i32 %18, ptr %3, align 4, !tbaa !12
  %19 = load ptr, ptr %2, align 8, !tbaa !3
  %20 = getelementptr inbounds nuw %struct.pmix_shmem_t, ptr %19, i32 0, i32 1
  store volatile i8 0, ptr %20, align 8, !tbaa !23
  %21 = load ptr, ptr %2, align 8, !tbaa !3
  %22 = getelementptr inbounds nuw %struct.pmix_shmem_t, ptr %21, i32 0, i32 3
  store ptr null, ptr %22, align 8, !tbaa !20
  %23 = load ptr, ptr %2, align 8, !tbaa !3
  %24 = getelementptr inbounds nuw %struct.pmix_shmem_t, ptr %23, i32 0, i32 4
  store ptr null, ptr %24, align 8, !tbaa !24
  br label %25

25:                                               ; preds = %11, %6, %1
  %26 = load i32, ptr %3, align 4, !tbaa !12
  %27 = icmp eq i32 0, %26
  %28 = select i1 %27, i32 0, i32 -1
  call void @llvm.lifetime.end.p0(i64 4, ptr %3) #7
  ret i32 %28
}

; Function Attrs: nounwind uwtable
define i32 @pmix_shmem_segment_unlink(ptr noundef %0) #0 {
  %2 = alloca ptr, align 8
  %3 = alloca i32, align 4
  store ptr %0, ptr %2, align 8, !tbaa !3
  call void @llvm.lifetime.start.p0(i64 4, ptr %3) #7
  %4 = load ptr, ptr %2, align 8, !tbaa !3
  %5 = getelementptr inbounds nuw %struct.pmix_shmem_t, ptr %4, i32 0, i32 5
  %6 = getelementptr inbounds [4097 x i8], ptr %5, i64 0, i64 0
  %7 = call i32 @unlink(ptr noundef %6) #7
  store i32 %7, ptr %3, align 4, !tbaa !12
  %8 = load ptr, ptr %2, align 8, !tbaa !3
  %9 = getelementptr inbounds nuw %struct.pmix_shmem_t, ptr %8, i32 0, i32 5
  %10 = getelementptr inbounds [4097 x i8], ptr %9, i64 0, i64 0
  call void @llvm.memset.p0.i64(ptr align 8 %10, i8 0, i64 4097, i1 false)
  %11 = load i32, ptr %3, align 4, !tbaa !12
  %12 = icmp eq i32 0, %11
  %13 = select i1 %12, i32 0, i32 -1
  call void @llvm.lifetime.end.p0(i64 4, ptr %3) #7
  ret i32 %13
}

; Function Attrs: inlinehint nounwind uwtable
define internal zeroext i1 @dec_ref_count(ptr noundef %0) #4 {
  %2 = alloca ptr, align 8
  store ptr %0, ptr %2, align 8, !tbaa !25
  %3 = load ptr, ptr %2, align 8, !tbaa !25
  %4 = getelementptr inbounds nuw %struct.pmix_shmem_header_t, ptr %3, i32 0, i32 0
  %5 = call i32 @pmix_atomic_sub_fetch_32(ptr noundef %4, i32 noundef 1)
  %6 = icmp eq i32 %5, 0
  ret i1 %6
}

; Function Attrs: nounwind uwtable
define internal void @shmem_destruct(ptr noundef %0) #0 {
  %2 = alloca ptr, align 8
  store ptr %0, ptr %2, align 8, !tbaa !3
  %3 = load ptr, ptr %2, align 8, !tbaa !3
  %4 = getelementptr inbounds nuw %struct.pmix_shmem_t, ptr %3, i32 0, i32 1
  %5 = load volatile i8, ptr %4, align 8, !tbaa !23, !range !27, !noundef !28
  %6 = trunc i8 %5 to i1
  br i1 %6, label %8, label %7

7:                                                ; preds = %1
  br label %19

8:                                                ; preds = %1
  %9 = load ptr, ptr %2, align 8, !tbaa !3
  %10 = getelementptr inbounds nuw %struct.pmix_shmem_t, ptr %9, i32 0, i32 3
  %11 = load ptr, ptr %10, align 8, !tbaa !20
  %12 = call zeroext i1 @dec_ref_count(ptr noundef %11)
  br i1 %12, label %13, label %16

13:                                               ; preds = %8
  %14 = load ptr, ptr %2, align 8, !tbaa !3
  %15 = call i32 @pmix_shmem_segment_unlink(ptr noundef %14)
  br label %16

16:                                               ; preds = %13, %8
  %17 = load ptr, ptr %2, align 8, !tbaa !3
  %18 = call i32 @pmix_shmem_segment_detach(ptr noundef %17)
  br label %19

19:                                               ; preds = %16, %7
  ret void
}