; Function Attrs: nounwind uwtable
define internal void @shmem_destruct(ptr noundef %0) #0 {
  %2 = getelementptr inbounds nuw i8, ptr %0, i64 120
  %3 = load volatile i8, ptr %2, align 8, !tbaa !15, !range !16, !noundef !17
  %4 = trunc nuw i8 %3 to i1
  br i1 %4, label %5, label %pmix_shmem_segment_detach.exit

5:                                                ; preds = %1
  %6 = getelementptr inbounds nuw i8, ptr %0, i64 136
  %7 = load ptr, ptr %6, align 8, !tbaa !14
  %8 = atomicrmw volatile sub ptr %7, i32 1 monotonic, align 4
  %9 = icmp eq i32 %8, 1
  br i1 %9, label %10, label %13

10:                                               ; preds = %5
  %11 = getelementptr inbounds nuw i8, ptr %0, i64 152
  %12 = tail call i32 @unlink(ptr noundef nonnull %11) #8
  tail call void @llvm.memset.p0.i64(ptr noundef nonnull align 8 dereferenceable(4097) %11, i8 0, i64 4097, i1 false)
  br label %13

13:                                               ; preds = %5, %10
  %14 = load volatile i8, ptr %2, align 8, !tbaa !15, !range !16, !noundef !17
  %15 = trunc nuw i8 %14 to i1
  br i1 %15, label %16, label %pmix_shmem_segment_detach.exit

16:                                               ; preds = %13
  %17 = load ptr, ptr %6, align 8, !tbaa !14
  %18 = getelementptr inbounds nuw i8, ptr %0, i64 128
  %19 = load i64, ptr %18, align 8, !tbaa !3
  %20 = tail call i32 @munmap(ptr noundef %17, i64 noundef %19) #8
  store volatile i8 0, ptr %2, align 8, !tbaa !15
  tail call void @llvm.memset.p0.i64(ptr noundef nonnull align 8 dereferenceable(16) %6, i8 0, i64 16, i1 false)
  br label %pmix_shmem_segment_detach.exit

pmix_shmem_segment_detach.exit:                   ; preds = %16, %13, %1
  ret void
}